; ModuleID = '55/957.cpp'
source_filename = "55/957.cpp"
target datalayout = "e-m:e-p270:32:32-p271:32:32-p272:64:64-i64:64-f80:128-n8:16:32:64-S128"
target triple = "x86_64-pc-linux-gnu"

%"class.std::ios_base::Init" = type { i8 }
%"class.std::basic_istream" = type { i32 (...)**, i64, %"class.std::basic_ios" }
%"class.std::basic_ios" = type { %"class.std::ios_base", %"class.std::basic_ostream"*, i8, i8, %"class.std::basic_streambuf"*, %"class.std::ctype"*, %"class.std::num_put"*, %"class.std::num_get"* }
%"class.std::ios_base" = type { i32 (...)**, i64, i64, i32, i32, i32, %"struct.std::ios_base::_Callback_list"*, %"struct.std::ios_base::_Words", [8 x %"struct.std::ios_base::_Words"], i32, %"struct.std::ios_base::_Words"*, %"class.std::locale" }
%"struct.std::ios_base::_Callback_list" = type { %"struct.std::ios_base::_Callback_list"*, void (i32, %"class.std::ios_base"*, i32)*, i32, i32 }
%"struct.std::ios_base::_Words" = type { i8*, i64 }
%"class.std::locale" = type { %"class.std::locale::_Impl"* }
%"class.std::locale::_Impl" = type { i32, %"class.std::locale::facet"**, i64, %"class.std::locale::facet"**, i8** }
%"class.std::locale::facet" = type <{ i32 (...)**, i32, [4 x i8] }>
%"class.std::basic_ostream" = type { i32 (...)**, %"class.std::basic_ios" }
%"class.std::basic_streambuf" = type { i32 (...)**, i8*, i8*, i8*, i8*, i8*, i8*, %"class.std::locale" }
%"class.std::ctype" = type <{ %"class.std::locale::facet.base", [4 x i8], %struct.__locale_struct*, i8, [7 x i8], i32*, i32*, i16*, i8, [256 x i8], [256 x i8], i8, [6 x i8] }>
%"class.std::locale::facet.base" = type <{ i32 (...)**, i32 }>
%struct.__locale_struct = type { [13 x %struct.__locale_data*], i16*, i32*, i32*, [13 x i8*] }
%struct.__locale_data = type opaque
%"class.std::num_put" = type { %"class.std::locale::facet.base", [4 x i8] }
%"class.std::num_get" = type { %"class.std::locale::facet.base", [4 x i8] }

@_ZStL8__ioinit = internal global %"class.std::ios_base::Init" zeroinitializer, align 1
@__dso_handle = external hidden global i8
@_ZSt3cin = external dso_local global %"class.std::basic_istream", align 8
@_ZSt4cout = external dso_local global %"class.std::basic_ostream", align 8
@llvm.global_ctors = appending global [1 x { i32, void ()*, i8* }] [{ i32, void ()*, i8* } { i32 65535, void ()* @_GLOBAL__sub_I_957.cpp, i8* null }]

; Function Attrs: noinline uwtable
define internal void @__cxx_global_var_init() #0 section ".text.startup" {
  call void @_ZNSt8ios_base4InitC1Ev(%"class.std::ios_base::Init"* @_ZStL8__ioinit)
  %1 = call i32 @__cxa_atexit(void (i8*)* bitcast (void (%"class.std::ios_base::Init"*)* @_ZNSt8ios_base4InitD1Ev to void (i8*)*), i8* getelementptr inbounds (%"class.std::ios_base::Init", %"class.std::ios_base::Init"* @_ZStL8__ioinit, i32 0, i32 0), i8* @__dso_handle) #3
  ret void
}

declare dso_local void @_ZNSt8ios_base4InitC1Ev(%"class.std::ios_base::Init"*) unnamed_addr #1

; Function Attrs: nounwind
declare dso_local void @_ZNSt8ios_base4InitD1Ev(%"class.std::ios_base::Init"*) unnamed_addr #2

; Function Attrs: nounwind
declare dso_local i32 @__cxa_atexit(void (i8*)*, i8*, i8*) #3

; Function Attrs: noinline norecurse uwtable
define dso_local i32 @main() #4 {
  %1 = alloca i32, align 4
  %2 = alloca i32, align 4
  %3 = alloca i32, align 4
  %4 = alloca i32, align 4
  %5 = alloca i32, align 4
  %6 = alloca [31 x i8], align 16
  %7 = alloca [31 x i8], align 16
  store i32 0, i32* %1, align 4
  store i32 0, i32* %4, align 4
  %8 = call dereferenceable(280) %"class.std::basic_istream"* @_ZNSirsERi(%"class.std::basic_istream"* @_ZSt3cin, i32* dereferenceable(4) %2)
  %9 = getelementptr inbounds [31 x i8], [31 x i8]* %6, i64 0, i64 0
  %10 = call dereferenceable(280) %"class.std::basic_istream"* @_ZStrsIcSt11char_traitsIcEERSt13basic_istreamIT_T0_ES6_PS3_(%"class.std::basic_istream"* dereferenceable(280) %8, i8* %9)
  %11 = call dereferenceable(280) %"class.std::basic_istream"* @_ZNSirsERi(%"class.std::basic_istream"* %10, i32* dereferenceable(4) %3)
  store i32 0, i32* %5, align 4
  br label %12

12:                                               ; preds = %67, %0
  %13 = load i32, i32* %5, align 4
  %14 = sext i32 %13 to i64
  %15 = getelementptr inbounds [31 x i8], [31 x i8]* %6, i64 0, i64 0
  %16 = call i64 @strlen(i8* %15) #6
  %17 = icmp ult i64 %14, %16
  br i1 %17, label %18, label %70

18:                                               ; preds = %12
  %19 = load i32, i32* %5, align 4
  %20 = sext i32 %19 to i64
  %21 = getelementptr inbounds [31 x i8], [31 x i8]* %6, i64 0, i64 %20
  %22 = load i8, i8* %21, align 1
  %23 = sext i8 %22 to i32
  %24 = icmp slt i32 %23, 58
  br i1 %24, label %25, label %33

25:                                               ; preds = %18
  %26 = load i32, i32* %5, align 4
  %27 = sext i32 %26 to i64
  %28 = getelementptr inbounds [31 x i8], [31 x i8]* %6, i64 0, i64 %27
  %29 = load i8, i8* %28, align 1
  %30 = sext i8 %29 to i32
  %31 = sub nsw i32 %30, 48
  %32 = trunc i32 %31 to i8
  store i8 %32, i8* %28, align 1
  br label %57

33:                                               ; preds = %18
  %34 = load i32, i32* %5, align 4
  %35 = sext i32 %34 to i64
  %36 = getelementptr inbounds [31 x i8], [31 x i8]* %6, i64 0, i64 %35
  %37 = load i8, i8* %36, align 1
  %38 = sext i8 %37 to i32
  %39 = icmp sgt i32 %38, 96
  br i1 %39, label %40, label %48

40:                                               ; preds = %33
  %41 = load i32, i32* %5, align 4
  %42 = sext i32 %41 to i64
  %43 = getelementptr inbounds [31 x i8], [31 x i8]* %6, i64 0, i64 %42
  %44 = load i8, i8* %43, align 1
  %45 = sext i8 %44 to i32
  %46 = sub nsw i32 %45, 87
  %47 = trunc i32 %46 to i8
  store i8 %47, i8* %43, align 1
  br label %56

48:                                               ; preds = %33
  %49 = load i32, i32* %5, align 4
  %50 = sext i32 %49 to i64
  %51 = getelementptr inbounds [31 x i8], [31 x i8]* %6, i64 0, i64 %50
  %52 = load i8, i8* %51, align 1
  %53 = sext i8 %52 to i32
  %54 = sub nsw i32 %53, 55
  %55 = trunc i32 %54 to i8
  store i8 %55, i8* %51, align 1
  br label %56

56:                                               ; preds = %48, %40
  br label %57

57:                                               ; preds = %56, %25
  %58 = load i32, i32* %4, align 4
  %59 = load i32, i32* %2, align 4
  %60 = mul nsw i32 %58, %59
  %61 = load i32, i32* %5, align 4
  %62 = sext i32 %61 to i64
  %63 = getelementptr inbounds [31 x i8], [31 x i8]* %6, i64 0, i64 %62
  %64 = load i8, i8* %63, align 1
  %65 = sext i8 %64 to i32
  %66 = add nsw i32 %60, %65
  store i32 %66, i32* %4, align 4
  br label %67

67:                                               ; preds = %57
  %68 = load i32, i32* %5, align 4
  %69 = add nsw i32 %68, 1
  store i32 %69, i32* %5, align 4
  br label %12

70:                                               ; preds = %12
  store i32 0, i32* %5, align 4
  br label %71

71:                                               ; preds = %101, %70
  %72 = load i32, i32* %4, align 4
  %73 = icmp ne i32 %72, 0
  br i1 %73, label %74, label %104

74:                                               ; preds = %71
  %75 = load i32, i32* %4, align 4
  %76 = load i32, i32* %3, align 4
  %77 = srem i32 %75, %76
  %78 = icmp slt i32 %77, 10
  br i1 %78, label %79, label %88

79:                                               ; preds = %74
  %80 = load i32, i32* %4, align 4
  %81 = load i32, i32* %3, align 4
  %82 = srem i32 %80, %81
  %83 = add nsw i32 %82, 48
  %84 = trunc i32 %83 to i8
  %85 = load i32, i32* %5, align 4
  %86 = sext i32 %85 to i64
  %87 = getelementptr inbounds [31 x i8], [31 x i8]* %7, i64 0, i64 %86
  store i8 %84, i8* %87, align 1
  br label %97

88:                                               ; preds = %74
  %89 = load i32, i32* %4, align 4
  %90 = load i32, i32* %3, align 4
  %91 = srem i32 %89, %90
  %92 = add nsw i32 %91, 55
  %93 = trunc i32 %92 to i8
  %94 = load i32, i32* %5, align 4
  %95 = sext i32 %94 to i64
  %96 = getelementptr inbounds [31 x i8], [31 x i8]* %7, i64 0, i64 %95
  store i8 %93, i8* %96, align 1
  br label %97

97:                                               ; preds = %88, %79
  %98 = load i32, i32* %4, align 4
  %99 = load i32, i32* %3, align 4
  %100 = sdiv i32 %98, %99
  store i32 %100, i32* %4, align 4
  br label %101

101:                                              ; preds = %97
  %102 = load i32, i32* %5, align 4
  %103 = add nsw i32 %102, 1
  store i32 %103, i32* %5, align 4
  br label %71

104:                                              ; preds = %71
  %105 = load i32, i32* %5, align 4
  %106 = icmp ne i32 %105, 0
  br i1 %106, label %107, label %122

107:                                              ; preds = %104
  br label %108

108:                                              ; preds = %118, %107
  %109 = load i32, i32* %5, align 4
  %110 = icmp sgt i32 %109, 0
  br i1 %110, label %111, label %121

111:                                              ; preds = %108
  %112 = load i32, i32* %5, align 4
  %113 = sub nsw i32 %112, 1
  %114 = sext i32 %113 to i64
  %115 = getelementptr inbounds [31 x i8], [31 x i8]* %7, i64 0, i64 %114
  %116 = load i8, i8* %115, align 1
  %117 = call dereferenceable(272) %"class.std::basic_ostream"* @_ZStlsISt11char_traitsIcEERSt13basic_ostreamIcT_ES5_c(%"class.std::basic_ostream"* dereferenceable(272) @_ZSt4cout, i8 signext %116)
  br label %118

118:                                              ; preds = %111
  %119 = load i32, i32* %5, align 4
  %120 = add nsw i32 %119, -1
  store i32 %120, i32* %5, align 4
  br label %108

121:                                              ; preds = %108
  br label %124

122:                                              ; preds = %104
  %123 = call dereferenceable(272) %"class.std::basic_ostream"* @_ZNSolsEi(%"class.std::basic_ostream"* @_ZSt4cout, i32 0)
  br label %124

124:                                              ; preds = %122, %121
  ret i32 0
}

declare dso_local dereferenceable(280) %"class.std::basic_istream"* @_ZStrsIcSt11char_traitsIcEERSt13basic_istreamIT_T0_ES6_PS3_(%"class.std::basic_istream"* dereferenceable(280), i8*) #1

declare dso_local dereferenceable(280) %"class.std::basic_istream"* @_ZNSirsERi(%"class.std::basic_istream"*, i32* dereferenceable(4)) #1

; Function Attrs: nounwind readonly
declare dso_local i64 @strlen(i8*) #5

declare dso_local dereferenceable(272) %"class.std::basic_ostream"* @_ZStlsISt11char_traitsIcEERSt13basic_ostreamIcT_ES5_c(%"class.std::basic_ostream"* dereferenceable(272), i8 signext) #1

declare dso_local dereferenceable(272) %"class.std::basic_ostream"* @_ZNSolsEi(%"class.std::basic_ostream"*, i32) #1

; Function Attrs: noinline uwtable
define internal void @_GLOBAL__sub_I_957.cpp() #0 section ".text.startup" {
  call void @__cxx_global_var_init()
  ret void
}


!llvm.module.flags = !{!0}
!llvm.ident = !{!1}

!0 = !{i32 1, !"wchar_size", i32 4}
!1 = !{!"clang version 10.0.0-4ubuntu1 "}
