; ModuleID = 'source-C-CXX/54/957.cpp'
source_filename = "source-C-CXX/54/957.cpp"
target datalayout = "e-m:e-p270:32:32-p271:32:32-p272:64:64-i64:64-f80:128-n8:16:32:64-S128"
target triple = "x86_64-pc-linux-gnu"

%"class.std::ios_base::Init" = type { i8 }
%"class.std::basic_istream" = type { i32 (...)**, i64, %"class.std::basic_ios" }
%"class.std::basic_ios" = type { %"class.std::ios_base", %"class.std::basic_ostream"*, i8, i8, %"class.std::basic_streambuf"*, %"class.std::ctype"*, %"class.std::num_put"*, %"class.std::num_get"* }
%"class.std::ios_base" = type { i32 (...)**, i64, i64, i32, i32, i32, %"struct.std::ios_base::_Callback_list"*, %"struct.std::ios_base::_Words", [8 x %"struct.std::ios_base::_Words"], i32, %"struct.std::ios_base::_Words"*, %"class.std::locale" }
%"struct.std::ios_base::_Callback_list" = type { %"struct.std::ios_base::_Callback_list"*, void (i32, %"class.std::ios_base"*, i32)*, i32, i32 }
%"struct.std::ios_base::_Words" = type { i8*, i64 }
%"class.std::locale" = type { %"class.std::locale::_Impl"* }
%"class.std::locale::_Impl" = type { i32, %"class.std::locale::facet"**, i64, %"class.std::locale::facet"**, i8** }
%"class.std::locale::facet" = type <{ i32 (...)**, i32, [4 x i8] }>
%"class.std::basic_ostream" = type { i32 (...)**, %"class.std::basic_ios" }
%"class.std::basic_streambuf" = type { i32 (...)**, i8*, i8*, i8*, i8*, i8*, i8*, %"class.std::locale" }
%"class.std::ctype" = type <{ %"class.std::locale::facet.base", [4 x i8], %struct.__locale_struct*, i8, [7 x i8], i32*, i32*, i16*, i8, [256 x i8], [256 x i8], i8, [6 x i8] }>
%"class.std::locale::facet.base" = type <{ i32 (...)**, i32 }>
%struct.__locale_struct = type { [13 x %struct.__locale_data*], i16*, i32*, i32*, [13 x i8*] }
%struct.__locale_data = type opaque
%"class.std::num_put" = type { %"class.std::locale::facet.base", [4 x i8] }
%"class.std::num_get" = type { %"class.std::locale::facet.base", [4 x i8] }

@_ZStL8__ioinit = internal global %"class.std::ios_base::Init" zeroinitializer, align 1
@__dso_handle = external hidden global i8
@_ZSt3cin = external global %"class.std::basic_istream", align 8
@_ZSt4cout = external global %"class.std::basic_ostream", align 8
@llvm.global_ctors = appending global [1 x { i32, void ()*, i8* }] [{ i32, void ()*, i8* } { i32 65535, void ()* @_GLOBAL__sub_I_957.cpp, i8* null }]

declare void @_ZNSt8ios_base4InitC1Ev(%"class.std::ios_base::Init"* nonnull align 1 dereferenceable(1)) unnamed_addr #0

; Function Attrs: nounwind
declare void @_ZNSt8ios_base4InitD1Ev(%"class.std::ios_base::Init"* nonnull align 1 dereferenceable(1)) unnamed_addr #1

; Function Attrs: nofree nounwind
declare i32 @__cxa_atexit(void (i8*)*, i8*, i8*) local_unnamed_addr #2

; Function Attrs: mustprogress norecurse sspstrong uwtable
define dso_local i32 @main() local_unnamed_addr #3 {
  %1 = alloca i8, align 1
  %2 = alloca i32, align 4
  %3 = alloca i32, align 4
  %4 = alloca [31 x i8], align 16
  %5 = alloca [31 x i8], align 16
  %6 = bitcast i32* %2 to i8*
  call void @llvm.lifetime.start.p0i8(i64 4, i8* nonnull %6) #7
  %7 = bitcast i32* %3 to i8*
  call void @llvm.lifetime.start.p0i8(i64 4, i8* nonnull %7) #7
  %8 = getelementptr inbounds [31 x i8], [31 x i8]* %4, i64 0, i64 0
  call void @llvm.lifetime.start.p0i8(i64 31, i8* nonnull %8) #7
  %9 = getelementptr inbounds [31 x i8], [31 x i8]* %5, i64 0, i64 0
  call void @llvm.lifetime.start.p0i8(i64 31, i8* nonnull %9) #7
  %10 = call nonnull align 8 dereferenceable(16) %"class.std::basic_istream"* @_ZNSirsERi(%"class.std::basic_istream"* nonnull align 8 dereferenceable(16) @_ZSt3cin, i32* nonnull align 4 dereferenceable(4) %2)
  call void @_ZSt17__istream_extractRSiPcl(%"class.std::basic_istream"* nonnull align 8 dereferenceable(16) %10, i8* nonnull %8, i64 31)
  %11 = call nonnull align 8 dereferenceable(16) %"class.std::basic_istream"* @_ZNSirsERi(%"class.std::basic_istream"* nonnull align 8 dereferenceable(16) %10, i32* nonnull align 4 dereferenceable(4) %3)
  %12 = load i32, i32* %2, align 4
  %13 = load i8, i8* %8, align 16
  %14 = icmp eq i8 %13, 0
  br i1 %14, label %75, label %15

15:                                               ; preds = %0
  %16 = getelementptr inbounds [31 x i8], [31 x i8]* %4, i64 0, i64 0
  %17 = icmp slt i8 %13, 58
  %18 = icmp sgt i8 %13, 96
  %19 = select i1 %18, i8 -87, i8 -55
  %20 = select i1 %17, i8 -48, i8 %19
  %21 = add i8 %13, %20
  store i8 %21, i8* %16, align 16, !tbaa !5
  %22 = sext i8 %21 to i32
  %23 = call i64 @strlen(i8* noundef nonnull %8) #8
  %24 = icmp ugt i64 %23, 1
  br i1 %24, label %29, label %25, !llvm.loop !8

25:                                               ; preds = %29, %15
  %26 = phi i32 [ %22, %15 ], [ %42, %29 ]
  %27 = load i32, i32* %3, align 4
  %28 = icmp eq i32 %26, 0
  br i1 %28, label %75, label %46

29:                                               ; preds = %15, %29
  %30 = phi i64 [ %43, %29 ], [ 1, %15 ]
  %31 = phi i32 [ %42, %29 ], [ %22, %15 ]
  %32 = getelementptr inbounds [31 x i8], [31 x i8]* %4, i64 0, i64 %30
  %33 = load i8, i8* %32, align 1, !tbaa !5
  %34 = getelementptr inbounds [31 x i8], [31 x i8]* %4, i64 0, i64 %30
  %35 = icmp slt i8 %33, 58
  %36 = icmp sgt i8 %33, 96
  %37 = select i1 %36, i8 -87, i8 -55
  %38 = select i1 %35, i8 -48, i8 %37
  %39 = add i8 %33, %38
  store i8 %39, i8* %34, align 1, !tbaa !5
  %40 = mul nsw i32 %12, %31
  %41 = sext i8 %39 to i32
  %42 = add nsw i32 %40, %41
  %43 = add nuw nsw i64 %30, 1
  %44 = call i64 @strlen(i8* noundef nonnull %8) #8
  %45 = icmp ugt i64 %44, %43
  br i1 %45, label %29, label %25, !llvm.loop !8

46:                                               ; preds = %25, %46
  %47 = phi i64 [ %56, %46 ], [ 0, %25 ]
  %48 = phi i32 [ %55, %46 ], [ %26, %25 ]
  %49 = srem i32 %48, %27
  %50 = icmp slt i32 %49, 10
  %51 = trunc i32 %49 to i8
  %52 = select i1 %50, i8 48, i8 55
  %53 = add i8 %52, %51
  %54 = getelementptr inbounds [31 x i8], [31 x i8]* %5, i64 0, i64 %47
  store i8 %53, i8* %54, align 1
  %55 = sdiv i32 %48, %27
  %56 = add nuw i64 %47, 1
  %57 = icmp eq i32 %55, 0
  br i1 %57, label %58, label %46, !llvm.loop !10

58:                                               ; preds = %46
  %59 = trunc i64 %56 to i32
  %60 = icmp eq i32 %59, 0
  br i1 %60, label %75, label %61

61:                                               ; preds = %58
  %62 = icmp sgt i32 %59, 0
  br i1 %62, label %63, label %77

63:                                               ; preds = %61
  %64 = and i64 %56, 4294967295
  br label %65

65:                                               ; preds = %63, %65
  %66 = phi i64 [ %64, %63 ], [ %74, %65 ]
  %67 = phi i32 [ %59, %63 ], [ %68, %65 ]
  %68 = add nsw i32 %67, -1
  %69 = zext i32 %68 to i64
  %70 = getelementptr inbounds [31 x i8], [31 x i8]* %5, i64 0, i64 %69
  %71 = load i8, i8* %70, align 1, !tbaa !5
  call void @llvm.lifetime.start.p0i8(i64 1, i8* nonnull %1)
  store i8 %71, i8* %1, align 1, !tbaa !5
  %72 = call nonnull align 8 dereferenceable(8) %"class.std::basic_ostream"* @_ZSt16__ostream_insertIcSt11char_traitsIcEERSt13basic_ostreamIT_T0_ES6_PKS3_l(%"class.std::basic_ostream"* nonnull align 8 dereferenceable(8) @_ZSt4cout, i8* nonnull %1, i64 1)
  call void @llvm.lifetime.end.p0i8(i64 1, i8* nonnull %1)
  %73 = icmp sgt i64 %66, 1
  %74 = add nsw i64 %66, -1
  br i1 %73, label %65, label %77, !llvm.loop !11

75:                                               ; preds = %0, %25, %58
  %76 = call nonnull align 8 dereferenceable(8) %"class.std::basic_ostream"* @_ZNSolsEi(%"class.std::basic_ostream"* nonnull align 8 dereferenceable(8) @_ZSt4cout, i32 0)
  br label %77

77:                                               ; preds = %65, %61, %75
  call void @llvm.lifetime.end.p0i8(i64 31, i8* nonnull %9) #7
  call void @llvm.lifetime.end.p0i8(i64 31, i8* nonnull %8) #7
  call void @llvm.lifetime.end.p0i8(i64 4, i8* nonnull %7) #7
  call void @llvm.lifetime.end.p0i8(i64 4, i8* nonnull %6) #7
  ret i32 0
}

; Function Attrs: argmemonly mustprogress nofree nosync nounwind willreturn
declare void @llvm.lifetime.start.p0i8(i64 immarg, i8* nocapture) #4

declare nonnull align 8 dereferenceable(16) %"class.std::basic_istream"* @_ZNSirsERi(%"class.std::basic_istream"* nonnull align 8 dereferenceable(16), i32* nonnull align 4 dereferenceable(4)) local_unnamed_addr #0

; Function Attrs: argmemonly mustprogress nofree nounwind readonly willreturn
declare i64 @strlen(i8* nocapture) local_unnamed_addr #5

declare nonnull align 8 dereferenceable(8) %"class.std::basic_ostream"* @_ZNSolsEi(%"class.std::basic_ostream"* nonnull align 8 dereferenceable(8), i32) local_unnamed_addr #0

; Function Attrs: argmemonly mustprogress nofree nosync nounwind willreturn
declare void @llvm.lifetime.end.p0i8(i64 immarg, i8* nocapture) #4

declare void @_ZSt17__istream_extractRSiPcl(%"class.std::basic_istream"* nonnull align 8 dereferenceable(16), i8*, i64) local_unnamed_addr #0

declare nonnull align 8 dereferenceable(8) %"class.std::basic_ostream"* @_ZSt16__ostream_insertIcSt11char_traitsIcEERSt13basic_ostreamIT_T0_ES6_PKS3_l(%"class.std::basic_ostream"* nonnull align 8 dereferenceable(8), i8*, i64) local_unnamed_addr #0

; Function Attrs: sspstrong uwtable
define internal void @_GLOBAL__sub_I_957.cpp() #6 section ".text.startup" {
  tail call void @_ZNSt8ios_base4InitC1Ev(%"class.std::ios_base::Init"* nonnull align 1 dereferenceable(1) @_ZStL8__ioinit)
  %1 = tail call i32 @__cxa_atexit(void (i8*)* bitcast (void (%"class.std::ios_base::Init"*)* @_ZNSt8ios_base4InitD1Ev to void (i8*)*), i8* getelementptr inbounds (%"class.std::ios_base::Init", %"class.std::ios_base::Init"* @_ZStL8__ioinit, i64 0, i32 0), i8* nonnull @__dso_handle) #7
  ret void
}


!llvm.module.flags = !{!0, !1, !2, !3}
!llvm.ident = !{!4}

!0 = !{i32 1, !"wchar_size", i32 4}
!1 = !{i32 7, !"PIC Level", i32 2}
!2 = !{i32 7, !"PIE Level", i32 2}
!3 = !{i32 7, !"uwtable", i32 1}
!4 = !{!"clang version 13.0.0"}
!5 = !{!6, !6, i64 0}
!6 = !{!"omnipotent char", !7, i64 0}
!7 = !{!"Simple C++ TBAA"}
!8 = distinct !{!8, !9}
!9 = !{!"llvm.loop.mustprogress"}
!10 = distinct !{!10, !9}
!11 = distinct !{!11, !9}
